target datalayout = "e-m:e-p270:32:32-p271:32:32-p272:64:64-i64:64-i128:128-f80:128-n8:16:32:64-S128"
target triple = "x86_64-pc-linux-gnu"

%"class.lean::object_ref" = type { ptr }
%"class.lean::data_value" = type { %"class.lean::object_ref" }
%"class.lean::list_ref" = type { %"class.lean::object_ref" }

@_ZN4lean10data_valueC1Eb = hidden unnamed_addr alias void (ptr, i1), ptr @_ZN4lean10data_valueC2Eb

; Function Attrs: mustprogress uwtable
define void @_ZN4lean8set_boolERKNS_8list_refINS_8pair_refINS_4nameENS_10data_valueEEEEERKS2_b(ptr dead_on_unwind noalias writable sret(%"class.lean::list_ref") align 8 %0, ptr noundef nonnull align 8 dereferenceable(8) %1, ptr noundef nonnull align 8 dereferenceable(8) %2, i1 noundef zeroext %3) #0 personality ptr @__gxx_personality_v0 {
  %5 = alloca ptr, align 8
  %6 = alloca ptr, align 8
  %7 = alloca ptr, align 8
  %8 = alloca i8, align 1
  %9 = alloca %"class.lean::data_value", align 8
  %10 = alloca ptr, align 8
  %11 = alloca i32, align 4
  store ptr %0, ptr %5, align 8
  store ptr %1, ptr %6, align 8, !tbaa !23
  store ptr %2, ptr %7, align 8, !tbaa !21
  %12 = zext i1 %3 to i8
  store i8 %12, ptr %8, align 1, !tbaa !8
  %13 = load ptr, ptr %6, align 8, !tbaa !23
  %14 = load ptr, ptr %7, align 8, !tbaa !21
  call void @llvm.lifetime.start.p0(i64 8, ptr %9) #10
  %15 = load i8, ptr %8, align 1, !tbaa !8, !range !10, !noundef !11
  %16 = trunc i8 %15 to i1
  call void @_ZN4lean10data_valueC1Eb(ptr noundef nonnull align 8 dereferenceable(8) %9, i1 noundef zeroext %16)
  invoke void @_ZN4leanL6insertERKNS_8list_refINS_8pair_refINS_4nameENS_10data_valueEEEEERKS2_RKS3_(ptr dead_on_unwind writable sret(%"class.lean::list_ref") align 8 %0, ptr noundef nonnull align 8 dereferenceable(8) %13, ptr noundef nonnull align 8 dereferenceable(8) %14, ptr noundef nonnull align 8 dereferenceable(8) %9)
          to label %17 unwind label %18

17:                                               ; preds = %4
  call void @_ZN4lean10object_refD2Ev(ptr noundef nonnull align 8 dereferenceable(8) %9) #10
  call void @llvm.lifetime.end.p0(i64 8, ptr %9) #10
  ret void

18:                                               ; preds = %4
  %19 = landingpad { ptr, i32 }
          cleanup
  %20 = extractvalue { ptr, i32 } %19, 0
  store ptr %20, ptr %10, align 8
  %21 = extractvalue { ptr, i32 } %19, 1
  store i32 %21, ptr %11, align 4
  call void @_ZN4lean10object_refD2Ev(ptr noundef nonnull align 8 dereferenceable(8) %9) #10
  call void @llvm.lifetime.end.p0(i64 8, ptr %9) #10
  br label %22

22:                                               ; preds = %18
  %23 = load ptr, ptr %10, align 8
  %24 = load i32, ptr %11, align 4
  %25 = insertvalue { ptr, i32 } poison, ptr %23, 0
  %26 = insertvalue { ptr, i32 } %25, i32 %24, 1
  resume { ptr, i32 } %26
}