; Function Attrs: mustprogress uwtable
define void @_ZN4lean8set_boolERKNS_8list_refINS_8pair_refINS_4nameENS_10data_valueEEEEERKS2_b(ptr dead_on_unwind noalias writable sret(%"class.lean::list_ref") align 8 %0, ptr noundef nonnull readonly align 8 captures(none) dereferenceable(8) %1, ptr noundef nonnull align 8 dereferenceable(8) %2, i1 noundef zeroext %3) local_unnamed_addr #0 personality ptr @__gxx_personality_v0 {
  %5 = alloca %"class.lean::data_value", align 8
  call void @llvm.lifetime.start.p0(i64 8, ptr nonnull %5) #6
  %6 = tail call ptr @lean_mk_bool_data_value(i1 noundef zeroext %3)
  store ptr %6, ptr %5, align 8, !tbaa !3
  invoke fastcc void @_ZN4leanL6insertERKNS_8list_refINS_8pair_refINS_4nameENS_10data_valueEEEEERKS2_RKS3_(ptr dead_on_unwind noalias writable align 8 %0, ptr noundef nonnull align 8 dereferenceable(8) %1, ptr noundef nonnull align 8 dereferenceable(8) %2, ptr noundef nonnull align 8 dereferenceable(8) %5)
          to label %7 unwind label %21

7:                                                ; preds = %4
  %8 = load ptr, ptr %5, align 8, !tbaa !3
  %9 = ptrtoint ptr %8 to i64
  %10 = and i64 %9, 1
  %.not.i.i = icmp eq i64 %10, 0
  br i1 %.not.i.i, label %11, label %_ZN4lean10object_refD2Ev.exit

11:                                               ; preds = %7
  %12 = load i32, ptr %8, align 4, !tbaa !8
  %13 = icmp sgt i32 %12, 1
  br i1 %13, label %14, label %16, !prof !11

14:                                               ; preds = %11
  %15 = add nsw i32 %12, -1
  store i32 %15, ptr %8, align 4, !tbaa !8
  br label %_ZN4lean10object_refD2Ev.exit

16:                                               ; preds = %11
  %.not.i.i.i = icmp eq i32 %12, 0
  br i1 %.not.i.i.i, label %_ZN4lean10object_refD2Ev.exit, label %17

17:                                               ; preds = %16
  invoke void @lean_dec_ref_cold(ptr noundef nonnull %8)
          to label %_ZN4lean10object_refD2Ev.exit unwind label %18

18:                                               ; preds = %17
  %19 = landingpad { ptr, i32 }
          catch ptr null
  %20 = extractvalue { ptr, i32 } %19, 0
  call void @__clang_call_terminate(ptr %20) #7
  unreachable

_ZN4lean10object_refD2Ev.exit:                    ; preds = %7, %14, %16, %17
  call void @llvm.lifetime.end.p0(i64 8, ptr nonnull %5) #6
  ret void

21:                                               ; preds = %4
  %22 = landingpad { ptr, i32 }
          cleanup
  call void @_ZN4lean10object_refD2Ev(ptr noundef nonnull align 8 dereferenceable(8) %5) #6
  call void @llvm.lifetime.end.p0(i64 8, ptr nonnull %5) #6
  resume { ptr, i32 } %22
}